; Function Attrs: null_pointer_is_valid sspstrong uwtable
define internal range(i32 -268435456, 268435456) i32 @dissect_Delete_From_Non_HS_SCCH_Associated_HS_SICH_Resource_Pool_LCR_PSCH_ReconfRqst_Ext_PDU(ptr noundef %0, ptr noundef %1, ptr noundef %2, ptr readnone captures(none) %3) #0 {
  %5 = alloca %struct._asn1_ctx_t, align 8
  call void @llvm.lifetime.start.p0(i64 208, ptr nonnull %5) #9
  call void @asn1_ctx_init(ptr noundef nonnull %5, i32 noundef 1, i1 noundef zeroext true, ptr noundef %1)
  %6 = load i32, ptr @hf_nbap_Delete_From_Non_HS_SCCH_Associated_HS_SICH_Resource_Pool_LCR_PSCH_ReconfRqst_Ext_PDU, align 4
  %7 = load i32, ptr @ett_nbap_Delete_From_Non_HS_SCCH_Associated_HS_SICH_Resource_Pool_LCR_PSCH_ReconfRqst_Ext, align 4
  %8 = call i32 @dissect_per_constrained_sequence_of(ptr noundef %0, i32 noundef 0, ptr noundef nonnull %5, ptr noundef %2, i32 noundef %6, i32 noundef %7, ptr noundef nonnull @Delete_From_Non_HS_SCCH_Associated_HS_SICH_Resource_Pool_LCR_PSCH_ReconfRqst_Ext_sequence_of, i32 noundef 0, i32 noundef 44, i1 noundef zeroext false)
  %9 = add i32 %8, 7
  %10 = ashr i32 %9, 3
  call void @llvm.lifetime.end.p0(i64 208, ptr nonnull %5) #9
  ret i32 %10
}